target datalayout = "e-m:e-p270:32:32-p271:32:32-p272:64:64-i64:64-i128:128-f80:128-n8:16:32:64-S128"
target triple = "x86_64-unknown-linux-gnu"

%class.symbol = type { ptr }
%"class.spacer::prop_solver" = type <{ ptr, %class.symbol, [2 x %class.ref], [2 x %class.scoped_ptr], ptr, %class.ptr_vector, %class.ref_vector, %class.ref_vector, %class.obj_hashtable, ptr, ptr, i8, [3 x i8], i32, i8, i8, i8, i8, i32, %class.random_gen, [4 x i8] }>
%class.ref = type { ptr }
%class.scoped_ptr = type { ptr }
%class.ptr_vector = type { %class.vector }
%class.vector = type { ptr }
%class.ref_vector = type { %class.ref_vector_core }
%class.ref_vector_core = type { %class.ref_manager_wrapper, %class.ptr_vector.0 }
%class.ref_manager_wrapper = type { ptr }
%class.ptr_vector.0 = type { %class.vector.1 }
%class.vector.1 = type { ptr }
%class.obj_hashtable = type { %class.core_hashtable.base, [4 x i8] }
%class.core_hashtable.base = type <{ ptr, i32, i32, i32 }>
%class.random_gen = type { i32 }
%class.params_ref = type { ptr }
%struct.mk_pp = type { %struct.mk_ismt2_pp }
%struct.mk_ismt2_pp = type { ptr, ptr, %class.params_ref, ptr, i32, i32, ptr }

@.str.1 = private unnamed_addr constant [12 x i8] c"$ asserted \00", align 1
@.str.2 = private unnamed_addr constant [2 x i8] c"\0A\00", align 1

; Function Attrs: mustprogress nounwind uwtable
define linkonce_odr hidden void @_ZN11mk_ismt2_ppD2Ev(ptr noundef nonnull align 8 dereferenceable(48) %this) unnamed_addr #6 comdat align 2 {
entry:
  %this.addr = alloca ptr, align 8
  store ptr %this, ptr %this.addr, align 8
  %this1 = load ptr, ptr %this.addr, align 8
  %m_empty = getelementptr inbounds %struct.mk_ismt2_pp, ptr %this1, i32 0, i32 2
  call void @_ZN10params_refD1Ev(ptr noundef nonnull align 8 dereferenceable(8) %m_empty) #3
  ret void
}

; Function Attrs: mustprogress nounwind uwtable
define linkonce_odr hidden void @_ZN5mk_ppD2Ev(ptr noundef nonnull align 8 dereferenceable(48) %this) unnamed_addr #6 comdat align 2 {
entry:
  %this.addr = alloca ptr, align 8
  store ptr %this, ptr %this.addr, align 8
  %this1 = load ptr, ptr %this.addr, align 8
  call void @_ZN11mk_ismt2_ppD2Ev(ptr noundef nonnull align 8 dereferenceable(48) %this1) #3
  ret void
}

; Function Attrs: mustprogress uwtable
define linkonce_odr hidden void @_ZN5mk_ppC2EP3astR11ast_managerjjPKc(ptr noundef nonnull align 8 dereferenceable(48) %this, ptr noundef %t, ptr noundef nonnull align 8 dereferenceable(976) %m, i32 noundef %indent, i32 noundef %num_vars, ptr noundef %var_prefix) unnamed_addr #4 comdat align 2 {
entry:
  %this.addr = alloca ptr, align 8
  %t.addr = alloca ptr, align 8
  %m.addr = alloca ptr, align 8
  %indent.addr = alloca i32, align 4
  %num_vars.addr = alloca i32, align 4
  %var_prefix.addr = alloca ptr, align 8
  store ptr %this, ptr %this.addr, align 8
  store ptr %t, ptr %t.addr, align 8
  store ptr %m, ptr %m.addr, align 8
  store i32 %indent, ptr %indent.addr, align 4
  store i32 %num_vars, ptr %num_vars.addr, align 4
  store ptr %var_prefix, ptr %var_prefix.addr, align 8
  %this1 = load ptr, ptr %this.addr, align 8
  %0 = load ptr, ptr %t.addr, align 8
  %1 = load ptr, ptr %m.addr, align 8
  %2 = load i32, ptr %indent.addr, align 4
  %3 = load i32, ptr %num_vars.addr, align 4
  %4 = load ptr, ptr %var_prefix.addr, align 8
  call void @_ZN11mk_ismt2_ppC2EP3astR11ast_managerjjPKc(ptr noundef nonnull align 8 dereferenceable(48) %this1, ptr noundef %0, ptr noundef nonnull align 8 dereferenceable(976) %1, i32 noundef %2, i32 noundef %3, ptr noundef %4)
  ret void
}

; Function Attrs: mustprogress nounwind uwtable
define linkonce_odr hidden noundef ptr @_ZNK10scoped_ptrIN6spacer10iuc_solverEEptEv(ptr noundef nonnull align 8 dereferenceable(8) %this) #6 comdat align 2 {
entry:
  %this.addr = alloca ptr, align 8
  store ptr %this, ptr %this.addr, align 8
  %this1 = load ptr, ptr %this.addr, align 8
  %m_ptr = getelementptr inbounds %class.scoped_ptr, ptr %this1, i32 0, i32 0
  %0 = load ptr, ptr %m_ptr, align 8
  ret ptr %0
}

; Function Attrs: mustprogress uwtable
define hidden void @_ZN6spacer11prop_solver11assert_exprEP4expr(ptr noundef nonnull align 8 dereferenceable(156) %this, ptr noundef %form) #4 align 2 personality ptr @__gxx_personality_v0 {
entry:
  %this.addr = alloca ptr, align 8
  %form.addr = alloca ptr, align 8
  %ref.tmp = alloca %struct.mk_pp, align 8
  %exn.slot = alloca ptr, align 8
  %ehselector.slot = alloca i32, align 4
  %ref.tmp15 = alloca %struct.mk_pp, align 8
  store ptr %this, ptr %this.addr, align 8
  store ptr %form, ptr %form.addr, align 8
  %this1 = load ptr, ptr %this.addr, align 8
  %m_contexts = getelementptr inbounds %"class.spacer::prop_solver", ptr %this1, i32 0, i32 3
  %arrayidx = getelementptr inbounds [2 x %class.scoped_ptr], ptr %m_contexts, i64 0, i64 0
  %call = call noundef ptr @_ZNK10scoped_ptrIN6spacer10iuc_solverEEptEv(ptr noundef nonnull align 8 dereferenceable(8) %arrayidx)
  %0 = load ptr, ptr %form.addr, align 8
  call void @_ZN6solver11assert_exprEP4expr(ptr noundef nonnull align 8 dereferenceable(96) %call, ptr noundef %0)
  %m_contexts2 = getelementptr inbounds %"class.spacer::prop_solver", ptr %this1, i32 0, i32 3
  %arrayidx3 = getelementptr inbounds [2 x %class.scoped_ptr], ptr %m_contexts2, i64 0, i64 1
  %call4 = call noundef ptr @_ZNK10scoped_ptrIN6spacer10iuc_solverEEptEv(ptr noundef nonnull align 8 dereferenceable(8) %arrayidx3)
  %1 = load ptr, ptr %form.addr, align 8
  call void @_ZN6solver11assert_exprEP4expr(ptr noundef nonnull align 8 dereferenceable(96) %call4, ptr noundef %1)
  %call5 = call noundef i32 @_Z19get_verbosity_levelv()
  %cmp = icmp uge i32 %call5, 21
  br i1 %cmp, label %if.then, label %if.end22

if.then:                                          ; preds = %entry
  %call6 = call noundef zeroext i1 @_Z11is_threadedv()
  br i1 %call6, label %if.then7, label %if.else

if.then7:                                         ; preds = %if.then
  call void @_Z12verbose_lockv()
  %call8 = call noundef nonnull align 8 dereferenceable(8) ptr @_Z14verbose_streamv()
  %call9 = call noundef nonnull align 8 dereferenceable(8) ptr @_ZStlsISt11char_traitsIcEERSt13basic_ostreamIcT_ES5_PKc(ptr noundef nonnull align 8 dereferenceable(8) %call8, ptr noundef @.str.1)
  %2 = load ptr, ptr %form.addr, align 8
  %m = getelementptr inbounds %"class.spacer::prop_solver", ptr %this1, i32 0, i32 0
  %3 = load ptr, ptr %m, align 8
  call void @_ZN5mk_ppC2EP3astR11ast_managerjjPKc(ptr noundef nonnull align 8 dereferenceable(48) %ref.tmp, ptr noundef %2, ptr noundef nonnull align 8 dereferenceable(976) %3, i32 noundef 0, i32 noundef 0, ptr noundef null)
  %call10 = invoke noundef nonnull align 8 dereferenceable(8) ptr @_ZlsRSoRK11mk_ismt2_pp(ptr noundef nonnull align 8 dereferenceable(8) %call9, ptr noundef nonnull align 8 dereferenceable(48) %ref.tmp)
          to label %invoke.cont unwind label %lpad

invoke.cont:                                      ; preds = %if.then7
  %call12 = invoke noundef nonnull align 8 dereferenceable(8) ptr @_ZStlsISt11char_traitsIcEERSt13basic_ostreamIcT_ES5_PKc(ptr noundef nonnull align 8 dereferenceable(8) %call10, ptr noundef @.str.2)
          to label %invoke.cont11 unwind label %lpad

invoke.cont11:                                    ; preds = %invoke.cont
  call void @_ZN5mk_ppD2Ev(ptr noundef nonnull align 8 dereferenceable(48) %ref.tmp) #3
  call void @_Z14verbose_unlockv()
  br label %if.end

lpad:                                             ; preds = %invoke.cont, %if.then7
  %4 = landingpad { ptr, i32 }
          cleanup
  %5 = extractvalue { ptr, i32 } %4, 0
  store ptr %5, ptr %exn.slot, align 8
  %6 = extractvalue { ptr, i32 } %4, 1
  store i32 %6, ptr %ehselector.slot, align 4
  call void @_ZN5mk_ppD2Ev(ptr noundef nonnull align 8 dereferenceable(48) %ref.tmp) #3
  br label %eh.resume

if.else:                                          ; preds = %if.then
  %call13 = call noundef nonnull align 8 dereferenceable(8) ptr @_Z14verbose_streamv()
  %call14 = call noundef nonnull align 8 dereferenceable(8) ptr @_ZStlsISt11char_traitsIcEERSt13basic_ostreamIcT_ES5_PKc(ptr noundef nonnull align 8 dereferenceable(8) %call13, ptr noundef @.str.1)
  %7 = load ptr, ptr %form.addr, align 8
  %m16 = getelementptr inbounds %"class.spacer::prop_solver", ptr %this1, i32 0, i32 0
  %8 = load ptr, ptr %m16, align 8
  call void @_ZN5mk_ppC2EP3astR11ast_managerjjPKc(ptr noundef nonnull align 8 dereferenceable(48) %ref.tmp15, ptr noundef %7, ptr noundef nonnull align 8 dereferenceable(976) %8, i32 noundef 0, i32 noundef 0, ptr noundef null)
  %call19 = invoke noundef nonnull align 8 dereferenceable(8) ptr @_ZlsRSoRK11mk_ismt2_pp(ptr noundef nonnull align 8 dereferenceable(8) %call14, ptr noundef nonnull align 8 dereferenceable(48) %ref.tmp15)
          to label %invoke.cont18 unwind label %lpad17

invoke.cont18:                                    ; preds = %if.else
  %call21 = invoke noundef nonnull align 8 dereferenceable(8) ptr @_ZStlsISt11char_traitsIcEERSt13basic_ostreamIcT_ES5_PKc(ptr noundef nonnull align 8 dereferenceable(8) %call19, ptr noundef @.str.2)
          to label %invoke.cont20 unwind label %lpad17

invoke.cont20:                                    ; preds = %invoke.cont18
  call void @_ZN5mk_ppD2Ev(ptr noundef nonnull align 8 dereferenceable(48) %ref.tmp15) #3
  br label %if.end

lpad17:                                           ; preds = %invoke.cont18, %if.else
  %9 = landingpad { ptr, i32 }
          cleanup
  %10 = extractvalue { ptr, i32 } %9, 0
  store ptr %10, ptr %exn.slot, align 8
  %11 = extractvalue { ptr, i32 } %9, 1
  store i32 %11, ptr %ehselector.slot, align 4
  call void @_ZN5mk_ppD2Ev(ptr noundef nonnull align 8 dereferenceable(48) %ref.tmp15) #3
  br label %eh.resume

if.end:                                           ; preds = %invoke.cont20, %invoke.cont11
  br label %if.end22

if.end22:                                         ; preds = %if.end, %entry
  ret void

eh.resume:                                        ; preds = %lpad17, %lpad
  %exn = load ptr, ptr %exn.slot, align 8
  %sel = load i32, ptr %ehselector.slot, align 4
  %lpad.val = insertvalue { ptr, i32 } poison, ptr %exn, 0
  %lpad.val23 = insertvalue { ptr, i32 } %lpad.val, i32 %sel, 1
  resume { ptr, i32 } %lpad.val23
}