; Function Attrs: mustprogress uwtable
define hidden void @_ZN6spacer11prop_solver11assert_exprEP4expr(ptr nocapture noundef nonnull readonly align 8 dereferenceable(156) %this, ptr noundef %form) local_unnamed_addr #3 align 2 personality ptr @__gxx_personality_v0 {
entry:
  %ref.tmp = alloca %struct.mk_pp, align 8
  %ref.tmp15 = alloca %struct.mk_pp, align 8
  %m_contexts = getelementptr inbounds i8, ptr %this, i64 32
  %0 = load ptr, ptr %m_contexts, align 8
  tail call void @_ZN6solver11assert_exprEP4expr(ptr noundef nonnull align 8 dereferenceable(96) %0, ptr noundef %form)
  %arrayidx3 = getelementptr inbounds i8, ptr %this, i64 40
  %1 = load ptr, ptr %arrayidx3, align 8
  tail call void @_ZN6solver11assert_exprEP4expr(ptr noundef nonnull align 8 dereferenceable(96) %1, ptr noundef %form)
  %call5 = tail call noundef i32 @_Z19get_verbosity_levelv()
  %cmp = icmp ugt i32 %call5, 20
  %ref.tmp15.sink.sroa.gep = getelementptr inbounds i8, ptr %ref.tmp15, i64 16
  %ref.tmp15.sink.sroa.gep8 = getelementptr inbounds i8, ptr %ref.tmp, i64 16
  br i1 %cmp, label %if.then, label %if.end22

if.then:                                          ; preds = %entry
  %call6 = tail call noundef zeroext i1 @_Z11is_threadedv()
  br i1 %call6, label %if.then7, label %if.else

if.then7:                                         ; preds = %if.then
  tail call void @_Z12verbose_lockv()
  %call8 = tail call noundef nonnull align 8 dereferenceable(8) ptr @_Z14verbose_streamv()
  %call9 = tail call noundef nonnull align 8 dereferenceable(8) ptr @_ZStlsISt11char_traitsIcEERSt13basic_ostreamIcT_ES5_PKc(ptr noundef nonnull align 8 dereferenceable(8) %call8, ptr noundef nonnull @.str.1)
  %2 = load ptr, ptr %this, align 8
  call void @_ZN11mk_ismt2_ppC2EP3astR11ast_managerjjPKc(ptr noundef nonnull align 8 dereferenceable(48) %ref.tmp, ptr noundef %form, ptr noundef nonnull align 8 dereferenceable(976) %2, i32 noundef 0, i32 noundef 0, ptr noundef null)
  %call10 = invoke noundef nonnull align 8 dereferenceable(8) ptr @_ZlsRSoRK11mk_ismt2_pp(ptr noundef nonnull align 8 dereferenceable(8) %call9, ptr noundef nonnull align 8 dereferenceable(48) %ref.tmp)
          to label %invoke.cont unwind label %lpad

invoke.cont:                                      ; preds = %if.then7
  %call12 = invoke noundef nonnull align 8 dereferenceable(8) ptr @_ZStlsISt11char_traitsIcEERSt13basic_ostreamIcT_ES5_PKc(ptr noundef nonnull align 8 dereferenceable(8) %call10, ptr noundef nonnull @.str.2)
          to label %invoke.cont11 unwind label %lpad

invoke.cont11:                                    ; preds = %invoke.cont
  %m_empty.i.i = getelementptr inbounds i8, ptr %ref.tmp, i64 16
  call void @_ZN10params_refD1Ev(ptr noundef nonnull align 8 dereferenceable(8) %m_empty.i.i) #16
  call void @_Z14verbose_unlockv()
  br label %if.end22

lpad:                                             ; preds = %invoke.cont, %if.then7
  %3 = landingpad { ptr, i32 }
          cleanup
  br label %eh.resume

if.else:                                          ; preds = %if.then
  %call13 = tail call noundef nonnull align 8 dereferenceable(8) ptr @_Z14verbose_streamv()
  %call14 = tail call noundef nonnull align 8 dereferenceable(8) ptr @_ZStlsISt11char_traitsIcEERSt13basic_ostreamIcT_ES5_PKc(ptr noundef nonnull align 8 dereferenceable(8) %call13, ptr noundef nonnull @.str.1)
  %4 = load ptr, ptr %this, align 8
  call void @_ZN11mk_ismt2_ppC2EP3astR11ast_managerjjPKc(ptr noundef nonnull align 8 dereferenceable(48) %ref.tmp15, ptr noundef %form, ptr noundef nonnull align 8 dereferenceable(976) %4, i32 noundef 0, i32 noundef 0, ptr noundef null)
  %call19 = invoke noundef nonnull align 8 dereferenceable(8) ptr @_ZlsRSoRK11mk_ismt2_pp(ptr noundef nonnull align 8 dereferenceable(8) %call14, ptr noundef nonnull align 8 dereferenceable(48) %ref.tmp15)
          to label %invoke.cont18 unwind label %lpad17

invoke.cont18:                                    ; preds = %if.else
  %call21 = invoke noundef nonnull align 8 dereferenceable(8) ptr @_ZStlsISt11char_traitsIcEERSt13basic_ostreamIcT_ES5_PKc(ptr noundef nonnull align 8 dereferenceable(8) %call19, ptr noundef nonnull @.str.2)
          to label %invoke.cont20 unwind label %lpad17

invoke.cont20:                                    ; preds = %invoke.cont18
  %m_empty.i.i6 = getelementptr inbounds i8, ptr %ref.tmp15, i64 16
  call void @_ZN10params_refD1Ev(ptr noundef nonnull align 8 dereferenceable(8) %m_empty.i.i6) #16
  br label %if.end22

lpad17:                                           ; preds = %invoke.cont18, %if.else
  %5 = landingpad { ptr, i32 }
          cleanup
  br label %eh.resume

if.end22:                                         ; preds = %invoke.cont11, %invoke.cont20, %entry
  ret void

eh.resume:                                        ; preds = %lpad17, %lpad
  %ref.tmp15.sink.sroa.phi = phi ptr [ %ref.tmp15.sink.sroa.gep, %lpad17 ], [ %ref.tmp15.sink.sroa.gep8, %lpad ]
  %.pn = phi { ptr, i32 } [ %5, %lpad17 ], [ %3, %lpad ]
  call void @_ZN10params_refD1Ev(ptr noundef nonnull align 8 dereferenceable(8) %ref.tmp15.sink.sroa.phi) #16
  resume { ptr, i32 } %.pn
}